target datalayout = "e-m:e-p270:32:32-p271:32:32-p272:64:64-i64:64-i128:128-f80:128-n8:16:32:64-S128"
target triple = "x86_64-pc-linux-gnu"

%struct.H5VL_loc_params_t = type { i32, i32, %union.anon.0 }
%union.anon.0 = type { %struct.H5VL_loc_by_idx }
%struct.H5VL_loc_by_idx = type { ptr, i32, i32, i64, i64 }
%struct.H5VL_attr_specific_args_t = type { i32, %union.anon.4 }
%union.anon.4 = type { %struct.H5VL_attr_iterate_args_t }
%struct.H5VL_attr_iterate_args_t = type { i32, i32, ptr, ptr, ptr }

@H5_libinit_g = external global i8, align 1
@H5_libterm_g = external global i8, align 1
@.str = private unnamed_addr constant [97 x i8] c"generated/home/dtcxzyw/WorkSpace/Projects/compilers/llvm-opt-benchmark/bench/hdf5/hdf5/src/H5A.c\00", align 1
@H5E_FUNC_g = external global i64, align 8
@H5E_CANTINIT_g = external global i64, align 8
@.str.1 = private unnamed_addr constant [30 x i8] c"library initialization failed\00", align 1
@H5E_CANTSET_g = external global i64, align 8
@.str.2 = private unnamed_addr constant [22 x i8] c"can't set API context\00", align 1
@H5E_ATTR_g = external global i64, align 8
@H5E_ARGS_g = external global i64, align 8
@H5E_BADTYPE_g = external global i64, align 8
@H5P_LST_DATASET_XFER_ID_g = external global i64, align 8
@H5E_BADVALUE_g = external global i64, align 8
@.str.43 = private unnamed_addr constant [39 x i8] c"location is not valid for an attribute\00", align 1
@.str.46 = private unnamed_addr constant [29 x i8] c"invalid index type specified\00", align 1
@.str.47 = private unnamed_addr constant [34 x i8] c"invalid iteration order specified\00", align 1
@__func__.H5Aiterate2 = private unnamed_addr constant [12 x i8] c"H5Aiterate2\00", align 1
@.str.65 = private unnamed_addr constant [28 x i8] c"invalid location identifier\00", align 1
@H5E_BADITER_g = external global i64, align 8
@.str.66 = private unnamed_addr constant [32 x i8] c"error iterating over attributes\00", align 1

; Function Attrs: nounwind uwtable
define i32 @H5Aiterate2(i64 noundef %0, i32 noundef %1, i32 noundef %2, ptr noundef %3, ptr noundef %4, ptr noundef %5) #0 {
  %7 = alloca i64, align 8
  %8 = alloca i32, align 4
  %9 = alloca i32, align 4
  %10 = alloca ptr, align 8
  %11 = alloca ptr, align 8
  %12 = alloca ptr, align 8
  %13 = alloca ptr, align 8
  %14 = alloca %struct.H5VL_loc_params_t, align 8
  %15 = alloca %struct.H5VL_attr_specific_args_t, align 8
  %16 = alloca i32, align 4
  %17 = alloca i8, align 1
  %18 = alloca i8, align 1
  store i64 %0, ptr %7, align 8
  store i32 %1, ptr %8, align 4
  store i32 %2, ptr %9, align 4
  store ptr %3, ptr %10, align 8
  store ptr %4, ptr %11, align 8
  store ptr %5, ptr %12, align 8
  store ptr null, ptr %13, align 8
  store i8 0, ptr %17, align 1
  store i8 0, ptr %18, align 1
  %19 = load i8, ptr @H5_libinit_g, align 1
  %20 = trunc i8 %19 to i1
  br i1 %20, label %25, label %21

21:                                               ; preds = %6
  %22 = load i8, ptr @H5_libterm_g, align 1
  %23 = trunc i8 %22 to i1
  %24 = xor i1 %23, true
  br label %25

25:                                               ; preds = %21, %6
  %26 = phi i1 [ false, %6 ], [ %24, %21 ]
  %27 = xor i1 %26, true
  %28 = xor i1 %27, true
  %29 = zext i1 %28 to i32
  %30 = sext i32 %29 to i64
  %31 = icmp ne i64 %30, 0
  br i1 %31, label %32, label %56

32:                                               ; preds = %25
  %33 = call i32 @H5_init_library()
  %34 = icmp slt i32 %33, 0
  %35 = xor i1 %34, true
  %36 = xor i1 %35, true
  %37 = zext i1 %36 to i32
  %38 = sext i32 %37 to i64
  %39 = icmp ne i64 %38, 0
  br i1 %39, label %40, label %55

40:                                               ; preds = %32
  br label %41

41:                                               ; preds = %40
  br label %42

42:                                               ; preds = %41
  br label %43

43:                                               ; preds = %42
  %44 = load i64, ptr @H5E_FUNC_g, align 8
  %45 = load i64, ptr @H5E_CANTINIT_g, align 8
  %46 = call i32 (ptr, ptr, i32, i64, i64, ptr, ...) @H5E_printf_stack(ptr noundef @.str, ptr noundef @__func__.H5Aiterate2, i32 noundef 1842, i64 noundef %44, i64 noundef %45, ptr noundef @.str.1)
  br label %47

47:                                               ; preds = %43
  store i8 1, ptr %18, align 1
  %48 = load i8, ptr %18, align 1
  %49 = trunc i8 %48 to i1
  %50 = zext i1 %49 to i8
  store i8 %50, ptr %18, align 1
  br label %51

51:                                               ; preds = %47
  br label %52

52:                                               ; preds = %51
  store i32 -1, ptr %16, align 4
  br label %193

53:                                               ; No predecessors!
  br label %54

54:                                               ; preds = %53
  br label %55

55:                                               ; preds = %54, %32
  br label %56

56:                                               ; preds = %55, %25
  %57 = call i32 @H5CX_push()
  %58 = icmp slt i32 %57, 0
  %59 = xor i1 %58, true
  %60 = xor i1 %59, true
  %61 = zext i1 %60 to i32
  %62 = sext i32 %61 to i64
  %63 = icmp ne i64 %62, 0
  br i1 %63, label %64, label %79

64:                                               ; preds = %56
  br label %65

65:                                               ; preds = %64
  br label %66

66:                                               ; preds = %65
  br label %67

67:                                               ; preds = %66
  %68 = load i64, ptr @H5E_FUNC_g, align 8
  %69 = load i64, ptr @H5E_CANTSET_g, align 8
  %70 = call i32 (ptr, ptr, i32, i64, i64, ptr, ...) @H5E_printf_stack(ptr noundef @.str, ptr noundef @__func__.H5Aiterate2, i32 noundef 1842, i64 noundef %68, i64 noundef %69, ptr noundef @.str.2)
  br label %71

71:                                               ; preds = %67
  store i8 1, ptr %18, align 1
  %72 = load i8, ptr %18, align 1
  %73 = trunc i8 %72 to i1
  %74 = zext i1 %73 to i8
  store i8 %74, ptr %18, align 1
  br label %75

75:                                               ; preds = %71
  br label %76

76:                                               ; preds = %75
  store i32 -1, ptr %16, align 4
  br label %193

77:                                               ; No predecessors!
  br label %78

78:                                               ; preds = %77
  br label %80

79:                                               ; preds = %56
  store i8 1, ptr %17, align 1
  br label %80

80:                                               ; preds = %79, %78
  %81 = call i32 @H5E_clear_stack()
  %82 = load i64, ptr %7, align 8
  %83 = call i32 @H5I_get_type(i64 noundef %82)
  %84 = icmp eq i32 7, %83
  br i1 %84, label %85, label %100

85:                                               ; preds = %80
  br label %86

86:                                               ; preds = %85
  br label %87

87:                                               ; preds = %86
  br label %88

88:                                               ; preds = %87
  %89 = load i64, ptr @H5E_ARGS_g, align 8
  %90 = load i64, ptr @H5E_BADTYPE_g, align 8
  %91 = call i32 (ptr, ptr, i32, i64, i64, ptr, ...) @H5E_printf_stack(ptr noundef @.str, ptr noundef @__func__.H5Aiterate2, i32 noundef 1846, i64 noundef %89, i64 noundef %90, ptr noundef @.str.43)
  br label %92

92:                                               ; preds = %88
  store i8 1, ptr %18, align 1
  %93 = load i8, ptr %18, align 1
  %94 = trunc i8 %93 to i1
  %95 = zext i1 %94 to i8
  store i8 %95, ptr %18, align 1
  br label %96

96:                                               ; preds = %92
  br label %97

97:                                               ; preds = %96
  store i32 -1, ptr %16, align 4
  br label %193

98:                                               ; No predecessors!
  br label %99

99:                                               ; preds = %98
  br label %100

100:                                              ; preds = %99, %80
  %101 = load i32, ptr %8, align 4
  %102 = icmp sle i32 %101, -1
  br i1 %102, label %106, label %103

103:                                              ; preds = %100
  %104 = load i32, ptr %8, align 4
  %105 = icmp sge i32 %104, 2
  br i1 %105, label %106, label %121

106:                                              ; preds = %103, %100
  br label %107

107:                                              ; preds = %106
  br label %108

108:                                              ; preds = %107
  br label %109

109:                                              ; preds = %108
  %110 = load i64, ptr @H5E_ARGS_g, align 8
  %111 = load i64, ptr @H5E_BADVALUE_g, align 8
  %112 = call i32 (ptr, ptr, i32, i64, i64, ptr, ...) @H5E_printf_stack(ptr noundef @.str, ptr noundef @__func__.H5Aiterate2, i32 noundef 1848, i64 noundef %110, i64 noundef %111, ptr noundef @.str.46)
  br label %113

113:                                              ; preds = %109
  store i8 1, ptr %18, align 1
  %114 = load i8, ptr %18, align 1
  %115 = trunc i8 %114 to i1
  %116 = zext i1 %115 to i8
  store i8 %116, ptr %18, align 1
  br label %117

117:                                              ; preds = %113
  br label %118

118:                                              ; preds = %117
  store i32 -1, ptr %16, align 4
  br label %193

119:                                              ; No predecessors!
  br label %120

120:                                              ; preds = %119
  br label %121

121:                                              ; preds = %120, %103
  %122 = load i32, ptr %9, align 4
  %123 = icmp sle i32 %122, -1
  br i1 %123, label %127, label %124

124:                                              ; preds = %121
  %125 = load i32, ptr %9, align 4
  %126 = icmp sge i32 %125, 3
  br i1 %126, label %127, label %142

127:                                              ; preds = %124, %121
  br label %128

128:                                              ; preds = %127
  br label %129

129:                                              ; preds = %128
  br label %130

130:                                              ; preds = %129
  %131 = load i64, ptr @H5E_ARGS_g, align 8
  %132 = load i64, ptr @H5E_BADVALUE_g, align 8
  %133 = call i32 (ptr, ptr, i32, i64, i64, ptr, ...) @H5E_printf_stack(ptr noundef @.str, ptr noundef @__func__.H5Aiterate2, i32 noundef 1850, i64 noundef %131, i64 noundef %132, ptr noundef @.str.47)
  br label %134

134:                                              ; preds = %130
  store i8 1, ptr %18, align 1
  %135 = load i8, ptr %18, align 1
  %136 = trunc i8 %135 to i1
  %137 = zext i1 %136 to i8
  store i8 %137, ptr %18, align 1
  br label %138

138:                                              ; preds = %134
  br label %139

139:                                              ; preds = %138
  store i32 -1, ptr %16, align 4
  br label %193

140:                                              ; No predecessors!
  br label %141

141:                                              ; preds = %140
  br label %142

142:                                              ; preds = %141, %124
  %143 = load i64, ptr %7, align 8
  %144 = call ptr @H5VL_vol_object(i64 noundef %143)
  store ptr %144, ptr %13, align 8
  %145 = icmp eq ptr null, %144
  br i1 %145, label %146, label %161

146:                                              ; preds = %142
  br label %147

147:                                              ; preds = %146
  br label %148

148:                                              ; preds = %147
  br label %149

149:                                              ; preds = %148
  %150 = load i64, ptr @H5E_ARGS_g, align 8
  %151 = load i64, ptr @H5E_BADTYPE_g, align 8
  %152 = call i32 (ptr, ptr, i32, i64, i64, ptr, ...) @H5E_printf_stack(ptr noundef @.str, ptr noundef @__func__.H5Aiterate2, i32 noundef 1854, i64 noundef %150, i64 noundef %151, ptr noundef @.str.65)
  br label %153

153:                                              ; preds = %149
  store i8 1, ptr %18, align 1
  %154 = load i8, ptr %18, align 1
  %155 = trunc i8 %154 to i1
  %156 = zext i1 %155 to i8
  store i8 %156, ptr %18, align 1
  br label %157

157:                                              ; preds = %153
  br label %158

158:                                              ; preds = %157
  store i32 -1, ptr %16, align 4
  br label %193

159:                                              ; No predecessors!
  br label %160

160:                                              ; preds = %159
  br label %161

161:                                              ; preds = %160, %142
  %162 = getelementptr inbounds %struct.H5VL_loc_params_t, ptr %14, i32 0, i32 1
  store i32 0, ptr %162, align 4
  %163 = load i64, ptr %7, align 8
  %164 = call i32 @H5I_get_type(i64 noundef %163)
  %165 = getelementptr inbounds %struct.H5VL_loc_params_t, ptr %14, i32 0, i32 0
  store i32 %164, ptr %165, align 8
  %166 = getelementptr inbounds %struct.H5VL_attr_specific_args_t, ptr %15, i32 0, i32 0
  store i32 3, ptr %166, align 8
  %167 = load i32, ptr %8, align 4
  %168 = getelementptr inbounds %struct.H5VL_attr_specific_args_t, ptr %15, i32 0, i32 1
  %169 = getelementptr inbounds %struct.H5VL_attr_iterate_args_t, ptr %168, i32 0, i32 0
  store i32 %167, ptr %169, align 8
  %170 = load i32, ptr %9, align 4
  %171 = getelementptr inbounds %struct.H5VL_attr_specific_args_t, ptr %15, i32 0, i32 1
  %172 = getelementptr inbounds %struct.H5VL_attr_iterate_args_t, ptr %171, i32 0, i32 1
  store i32 %170, ptr %172, align 4
  %173 = load ptr, ptr %10, align 8
  %174 = getelementptr inbounds %struct.H5VL_attr_specific_args_t, ptr %15, i32 0, i32 1
  %175 = getelementptr inbounds %struct.H5VL_attr_iterate_args_t, ptr %174, i32 0, i32 2
  store ptr %173, ptr %175, align 8
  %176 = load ptr, ptr %11, align 8
  %177 = getelementptr inbounds %struct.H5VL_attr_specific_args_t, ptr %15, i32 0, i32 1
  %178 = getelementptr inbounds %struct.H5VL_attr_iterate_args_t, ptr %177, i32 0, i32 3
  store ptr %176, ptr %178, align 8
  %179 = load ptr, ptr %12, align 8
  %180 = getelementptr inbounds %struct.H5VL_attr_specific_args_t, ptr %15, i32 0, i32 1
  %181 = getelementptr inbounds %struct.H5VL_attr_iterate_args_t, ptr %180, i32 0, i32 4
  store ptr %179, ptr %181, align 8
  %182 = load ptr, ptr %13, align 8
  %183 = load i64, ptr @H5P_LST_DATASET_XFER_ID_g, align 8
  %184 = call i32 @H5VL_attr_specific(ptr noundef %182, ptr noundef %14, ptr noundef %15, i64 noundef %183, ptr noundef null)
  store i32 %184, ptr %16, align 4
  %185 = icmp slt i32 %184, 0
  br i1 %185, label %186, label %192

186:                                              ; preds = %161
  br label %187

187:                                              ; preds = %186
  %188 = load i64, ptr @H5E_ATTR_g, align 8
  %189 = load i64, ptr @H5E_BADITER_g, align 8
  %190 = call i32 (ptr, ptr, i32, i64, i64, ptr, ...) @H5E_printf_stack(ptr noundef @.str, ptr noundef @__func__.H5Aiterate2, i32 noundef 1871, i64 noundef %188, i64 noundef %189, ptr noundef @.str.66)
  br label %191

191:                                              ; preds = %187
  br label %192

192:                                              ; preds = %191, %161
  br label %193

193:                                              ; preds = %192, %158, %139, %118, %97, %76, %52
  %194 = load i8, ptr %17, align 1
  %195 = trunc i8 %194 to i1
  %196 = xor i1 %195, true
  %197 = xor i1 %196, true
  %198 = zext i1 %197 to i32
  %199 = sext i32 %198 to i64
  %200 = icmp ne i64 %199, 0
  br i1 %200, label %201, label %203

201:                                              ; preds = %193
  %202 = call i32 @H5CX_pop(i1 noundef zeroext true)
  store i8 0, ptr %17, align 1
  br label %203

203:                                              ; preds = %201, %193
  %204 = load i8, ptr %18, align 1
  %205 = trunc i8 %204 to i1
  %206 = xor i1 %205, true
  %207 = xor i1 %206, true
  %208 = zext i1 %207 to i32
  %209 = sext i32 %208 to i64
  %210 = icmp ne i64 %209, 0
  br i1 %210, label %211, label %213

211:                                              ; preds = %203
  %212 = call i32 @H5E_dump_api_stack()
  br label %213

213:                                              ; preds = %211, %203
  %214 = load i32, ptr %16, align 4
  ret i32 %214
}