; Function Attrs: nounwind uwtable
define i32 @H5Aiterate2(i64 noundef %0, i32 noundef %1, i32 noundef %2, ptr noundef %3, ptr noundef %4, ptr noundef %5) local_unnamed_addr #0 {
  %7 = alloca %struct.H5VL_loc_params_t, align 8
  %8 = alloca %struct.H5VL_attr_specific_args_t, align 8
  %9 = load i8, ptr @H5_libinit_g, align 1
  %10 = trunc i8 %9 to i1
  %11 = load i8, ptr @H5_libterm_g, align 1
  %12 = trunc i8 %11 to i1
  %13 = select i1 %10, i1 true, i1 %12
  br i1 %13, label %21, label %14

14:                                               ; preds = %6
  %15 = tail call i32 @H5_init_library() #4
  %16 = icmp slt i32 %15, 0
  br i1 %16, label %17, label %21

17:                                               ; preds = %14
  %18 = load i64, ptr @H5E_FUNC_g, align 8
  %19 = load i64, ptr @H5E_CANTINIT_g, align 8
  %20 = tail call i32 (ptr, ptr, i32, i64, i64, ptr, ...) @H5E_printf_stack(ptr noundef nonnull @.str, ptr noundef nonnull @__func__.H5Aiterate2, i32 noundef 1842, i64 noundef %18, i64 noundef %19, ptr noundef nonnull @.str.1) #4
  br label %.thread38

21:                                               ; preds = %14, %6
  %22 = tail call i32 @H5CX_push() #4
  %23 = icmp slt i32 %22, 0
  br i1 %23, label %24, label %28

24:                                               ; preds = %21
  %25 = load i64, ptr @H5E_FUNC_g, align 8
  %26 = load i64, ptr @H5E_CANTSET_g, align 8
  %27 = tail call i32 (ptr, ptr, i32, i64, i64, ptr, ...) @H5E_printf_stack(ptr noundef nonnull @.str, ptr noundef nonnull @__func__.H5Aiterate2, i32 noundef 1842, i64 noundef %25, i64 noundef %26, ptr noundef nonnull @.str.2) #4
  br label %.thread38

28:                                               ; preds = %21
  %29 = tail call i32 @H5E_clear_stack() #4
  %30 = tail call i32 @H5I_get_type(i64 noundef %0) #4
  %31 = icmp eq i32 %30, 7
  br i1 %31, label %32, label %36

32:                                               ; preds = %28
  %33 = load i64, ptr @H5E_ARGS_g, align 8
  %34 = load i64, ptr @H5E_BADTYPE_g, align 8
  %35 = tail call i32 (ptr, ptr, i32, i64, i64, ptr, ...) @H5E_printf_stack(ptr noundef nonnull @.str, ptr noundef nonnull @__func__.H5Aiterate2, i32 noundef 1846, i64 noundef %33, i64 noundef %34, ptr noundef nonnull @.str.43) #4
  br label %.thread44

36:                                               ; preds = %28
  %or.cond = icmp ugt i32 %1, 1
  br i1 %or.cond, label %37, label %41

37:                                               ; preds = %36
  %38 = load i64, ptr @H5E_ARGS_g, align 8
  %39 = load i64, ptr @H5E_BADVALUE_g, align 8
  %40 = tail call i32 (ptr, ptr, i32, i64, i64, ptr, ...) @H5E_printf_stack(ptr noundef nonnull @.str, ptr noundef nonnull @__func__.H5Aiterate2, i32 noundef 1848, i64 noundef %38, i64 noundef %39, ptr noundef nonnull @.str.46) #4
  br label %.thread44

41:                                               ; preds = %36
  %or.cond3 = icmp ugt i32 %2, 2
  br i1 %or.cond3, label %42, label %46

42:                                               ; preds = %41
  %43 = load i64, ptr @H5E_ARGS_g, align 8
  %44 = load i64, ptr @H5E_BADVALUE_g, align 8
  %45 = tail call i32 (ptr, ptr, i32, i64, i64, ptr, ...) @H5E_printf_stack(ptr noundef nonnull @.str, ptr noundef nonnull @__func__.H5Aiterate2, i32 noundef 1850, i64 noundef %43, i64 noundef %44, ptr noundef nonnull @.str.47) #4
  br label %.thread44

46:                                               ; preds = %41
  %47 = tail call ptr @H5VL_vol_object(i64 noundef %0) #4
  %48 = icmp eq ptr %47, null
  br i1 %48, label %49, label %53

49:                                               ; preds = %46
  %50 = load i64, ptr @H5E_ARGS_g, align 8
  %51 = load i64, ptr @H5E_BADTYPE_g, align 8
  %52 = tail call i32 (ptr, ptr, i32, i64, i64, ptr, ...) @H5E_printf_stack(ptr noundef nonnull @.str, ptr noundef nonnull @__func__.H5Aiterate2, i32 noundef 1854, i64 noundef %50, i64 noundef %51, ptr noundef nonnull @.str.65) #4
  br label %.thread44

53:                                               ; preds = %46
  %54 = getelementptr inbounds i8, ptr %7, i64 4
  store i32 0, ptr %54, align 4
  %55 = tail call i32 @H5I_get_type(i64 noundef %0) #4
  store i32 %55, ptr %7, align 8
  store i32 3, ptr %8, align 8
  %56 = getelementptr inbounds i8, ptr %8, i64 8
  store i32 %1, ptr %56, align 8
  %57 = getelementptr inbounds i8, ptr %8, i64 12
  store i32 %2, ptr %57, align 4
  %58 = getelementptr inbounds i8, ptr %8, i64 16
  store ptr %3, ptr %58, align 8
  %59 = getelementptr inbounds i8, ptr %8, i64 24
  store ptr %4, ptr %59, align 8
  %60 = getelementptr inbounds i8, ptr %8, i64 32
  store ptr %5, ptr %60, align 8
  %61 = load i64, ptr @H5P_LST_DATASET_XFER_ID_g, align 8
  %62 = call i32 @H5VL_attr_specific(ptr noundef nonnull %47, ptr noundef nonnull %7, ptr noundef nonnull %8, i64 noundef %61, ptr noundef null) #4
  %63 = icmp slt i32 %62, 0
  br i1 %63, label %64, label %69

64:                                               ; preds = %53
  %65 = load i64, ptr @H5E_ATTR_g, align 8
  %66 = load i64, ptr @H5E_BADITER_g, align 8
  %67 = call i32 (ptr, ptr, i32, i64, i64, ptr, ...) @H5E_printf_stack(ptr noundef nonnull @.str, ptr noundef nonnull @__func__.H5Aiterate2, i32 noundef 1871, i64 noundef %65, i64 noundef %66, ptr noundef nonnull @.str.66) #4
  br label %69

.thread44:                                        ; preds = %49, %42, %37, %32
  %68 = tail call i32 @H5CX_pop(i1 noundef zeroext true) #4
  br label %.thread38

69:                                               ; preds = %53, %64
  %70 = call i32 @H5CX_pop(i1 noundef zeroext true) #4
  br label %72

.thread38:                                        ; preds = %24, %17, %.thread44
  %71 = tail call i32 @H5E_dump_api_stack() #4
  br label %72

72:                                               ; preds = %69, %.thread38
  %.0253341 = phi i32 [ -1, %.thread38 ], [ %62, %69 ]
  ret i32 %.0253341
}